target datalayout = "e-m:e-p270:32:32-p271:32:32-p272:64:64-i64:64-i128:128-f80:128-n8:16:32:64-S128"
target triple = "x86_64-pc-linux-gnu"

%"struct.std::atomic.10" = type { %"struct.std::__atomic_base.11" }
%"struct.std::__atomic_base.11" = type { ptr }
%struct.buffered_s = type { ptr, ptr, ptr, i64, i64 }

@_ZL14mi_out_default = internal global ptr null, align 8
@_ZL10mi_out_arg = internal global %"struct.std::atomic.10" zeroinitializer, align 8
@stdout = external global ptr, align 8
@stderr = external global ptr, align 8

; Function Attrs: mustprogress nounwind uwtable
define linkonce_odr noundef i32 @_ZStanSt12memory_orderSt23__memory_order_modifier(i32 noundef %0, i32 noundef %1) #5 comdat {
  %3 = alloca i32, align 4
  %4 = alloca i32, align 4
  store i32 %0, ptr %3, align 4, !tbaa !32
  store i32 %1, ptr %4, align 4, !tbaa !428
  %5 = load i32, ptr %3, align 4, !tbaa !32
  %6 = load i32, ptr %4, align 4, !tbaa !428
  %7 = and i32 %5, %6
  ret i32 %7
}

; Function Attrs: alwaysinline mustprogress nounwind uwtable
define linkonce_odr hidden noundef ptr @_ZNKSt13__atomic_baseIPvE4loadESt12memory_order(ptr noundef nonnull align 8 dereferenceable(8) %0, i32 noundef %1) #17 comdat align 2 {
  %3 = alloca ptr, align 8
  %4 = alloca i32, align 4
  %5 = alloca i32, align 4
  %6 = alloca ptr, align 8
  store ptr %0, ptr %3, align 8, !tbaa !492
  store i32 %1, ptr %4, align 4, !tbaa !32
  %7 = load ptr, ptr %3, align 8
  call void @llvm.lifetime.start.p0(i64 4, ptr %5) #19
  %8 = load i32, ptr %4, align 4, !tbaa !32
  %9 = call noundef i32 @_ZStanSt12memory_orderSt23__memory_order_modifier(i32 noundef %8, i32 noundef 65535)
  store i32 %9, ptr %5, align 4, !tbaa !32
  br label %10

10:                                               ; preds = %2
  br label %11

11:                                               ; preds = %10
  br label %12

12:                                               ; preds = %11
  br label %13

13:                                               ; preds = %12
  br label %14

14:                                               ; preds = %13
  br label %15

15:                                               ; preds = %14
  %16 = getelementptr inbounds nuw %"struct.std::__atomic_base.11", ptr %7, i32 0, i32 0
  %17 = load i32, ptr %4, align 4, !tbaa !32
  switch i32 %17, label %18 [
    i32 1, label %20
    i32 2, label %20
    i32 5, label %22
  ]

18:                                               ; preds = %15
  %19 = load atomic i64, ptr %16 monotonic, align 8
  store i64 %19, ptr %6, align 8
  br label %24

20:                                               ; preds = %15, %15
  %21 = load atomic i64, ptr %16 acquire, align 8
  store i64 %21, ptr %6, align 8
  br label %24

22:                                               ; preds = %15
  %23 = load atomic i64, ptr %16 seq_cst, align 8
  store i64 %23, ptr %6, align 8
  br label %24

24:                                               ; preds = %22, %20, %18
  %25 = load ptr, ptr %6, align 8, !tbaa !8
  call void @llvm.lifetime.end.p0(i64 4, ptr %5) #19
  ret ptr %25
}

; Function Attrs: mustprogress nounwind uwtable
define linkonce_odr hidden noundef ptr @_ZNKSt6atomicIPvE4loadESt12memory_order(ptr noundef nonnull align 8 dereferenceable(8) %0, i32 noundef %1) #5 comdat align 2 {
  %3 = alloca ptr, align 8
  %4 = alloca i32, align 4
  store ptr %0, ptr %3, align 8, !tbaa !282
  store i32 %1, ptr %4, align 4, !tbaa !32
  %5 = load ptr, ptr %3, align 8
  %6 = getelementptr inbounds nuw %"struct.std::atomic.10", ptr %5, i32 0, i32 0
  %7 = load i32, ptr %4, align 4, !tbaa !32
  %8 = call noundef ptr @_ZNKSt13__atomic_baseIPvE4loadESt12memory_order(ptr noundef nonnull align 8 dereferenceable(8) %6, i32 noundef %7) #19
  ret ptr %8
}

; Function Attrs: inlinehint mustprogress nounwind uwtable
define linkonce_odr noundef ptr @_ZSt20atomic_load_explicitIPvET_PKSt6atomicIS1_ESt12memory_order(ptr noundef %0, i32 noundef %1) #3 comdat {
  %3 = alloca ptr, align 8
  %4 = alloca i32, align 4
  store ptr %0, ptr %3, align 8, !tbaa !282
  store i32 %1, ptr %4, align 4, !tbaa !32
  %5 = load ptr, ptr %3, align 8, !tbaa !282
  %6 = load i32, ptr %4, align 4, !tbaa !32
  %7 = call noundef ptr @_ZNKSt6atomicIPvE4loadESt12memory_order(ptr noundef nonnull align 8 dereferenceable(8) %5, i32 noundef %6) #19
  ret ptr %7
}

; Function Attrs: mustprogress uwtable
define internal void @_ZL15mi_recurse_exitv() #0 {
  call void @_ZL20mi_recurse_exit_primv()
  ret void
}

; Function Attrs: mustprogress nounwind uwtable
define internal noundef ptr @_ZL18mi_out_get_defaultPPv(ptr noundef %0) #5 {
  %2 = alloca ptr, align 8
  %3 = alloca ptr, align 8
  store ptr %0, ptr %2, align 8, !tbaa !54
  %4 = load ptr, ptr %2, align 8, !tbaa !54
  %5 = icmp ne ptr %4, null
  br i1 %5, label %6, label %9

6:                                                ; preds = %1
  %7 = call noundef ptr @_ZSt20atomic_load_explicitIPvET_PKSt6atomicIS1_ESt12memory_order(ptr noundef @_ZL10mi_out_arg, i32 noundef 2) #19
  %8 = load ptr, ptr %2, align 8, !tbaa !54
  store ptr %7, ptr %8, align 8, !tbaa !8
  br label %9

9:                                                ; preds = %6, %1
  call void @llvm.lifetime.start.p0(i64 8, ptr %3) #19
  %10 = load volatile ptr, ptr @_ZL14mi_out_default, align 8, !tbaa !8
  store ptr %10, ptr %3, align 8, !tbaa !8
  %11 = load ptr, ptr %3, align 8, !tbaa !8
  %12 = icmp eq ptr %11, null
  br i1 %12, label %13, label %14

13:                                               ; preds = %9
  br label %16

14:                                               ; preds = %9
  %15 = load ptr, ptr %3, align 8, !tbaa !8
  br label %16

16:                                               ; preds = %14, %13
  %17 = phi ptr [ @_ZL10mi_out_bufPKcPv, %13 ], [ %15, %14 ]
  call void @llvm.lifetime.end.p0(i64 8, ptr %3) #19
  ret ptr %17
}

; Function Attrs: mustprogress uwtable
define internal noundef zeroext i1 @_ZL16mi_recurse_enterv() #0 {
  %1 = call noundef zeroext i1 @_ZL21mi_recurse_enter_primv()
  ret i1 %1
}

; Function Attrs: mustprogress uwtable
define hidden void @_Z9_mi_fputsPFvPKcPvES1_S0_S0_(ptr noundef %0, ptr noundef %1, ptr noundef %2, ptr noundef %3) #0 {
  %5 = alloca ptr, align 8
  %6 = alloca ptr, align 8
  %7 = alloca ptr, align 8
  %8 = alloca ptr, align 8
  store ptr %0, ptr %5, align 8, !tbaa !8
  store ptr %1, ptr %6, align 8, !tbaa !8
  store ptr %2, ptr %7, align 8, !tbaa !29
  store ptr %3, ptr %8, align 8, !tbaa !29
  %9 = load ptr, ptr %5, align 8, !tbaa !8
  %10 = icmp eq ptr %9, null
  br i1 %10, label %19, label %11

11:                                               ; preds = %4
  %12 = load ptr, ptr %5, align 8, !tbaa !8
  %13 = load ptr, ptr @stdout, align 8, !tbaa !249
  %14 = icmp eq ptr %12, %13
  br i1 %14, label %19, label %15

15:                                               ; preds = %11
  %16 = load ptr, ptr %5, align 8, !tbaa !8
  %17 = load ptr, ptr @stderr, align 8, !tbaa !249
  %18 = icmp eq ptr %16, %17
  br i1 %18, label %19, label %34

19:                                               ; preds = %15, %11, %4
  %20 = call noundef zeroext i1 @_ZL16mi_recurse_enterv()
  br i1 %20, label %22, label %21

21:                                               ; preds = %19
  br label %45

22:                                               ; preds = %19
  %23 = call noundef ptr @_ZL18mi_out_get_defaultPPv(ptr noundef %6)
  store ptr %23, ptr %5, align 8, !tbaa !8
  %24 = load ptr, ptr %7, align 8, !tbaa !29
  %25 = icmp ne ptr %24, null
  br i1 %25, label %26, label %30

26:                                               ; preds = %22
  %27 = load ptr, ptr %5, align 8, !tbaa !8
  %28 = load ptr, ptr %7, align 8, !tbaa !29
  %29 = load ptr, ptr %6, align 8, !tbaa !8
  call void %27(ptr noundef %28, ptr noundef %29)
  br label %30

30:                                               ; preds = %26, %22
  %31 = load ptr, ptr %5, align 8, !tbaa !8
  %32 = load ptr, ptr %8, align 8, !tbaa !29
  %33 = load ptr, ptr %6, align 8, !tbaa !8
  call void %31(ptr noundef %32, ptr noundef %33)
  call void @_ZL15mi_recurse_exitv()
  br label %45

34:                                               ; preds = %15
  %35 = load ptr, ptr %7, align 8, !tbaa !29
  %36 = icmp ne ptr %35, null
  br i1 %36, label %37, label %41

37:                                               ; preds = %34
  %38 = load ptr, ptr %5, align 8, !tbaa !8
  %39 = load ptr, ptr %7, align 8, !tbaa !29
  %40 = load ptr, ptr %6, align 8, !tbaa !8
  call void %38(ptr noundef %39, ptr noundef %40)
  br label %41

41:                                               ; preds = %37, %34
  %42 = load ptr, ptr %5, align 8, !tbaa !8
  %43 = load ptr, ptr %8, align 8, !tbaa !29
  %44 = load ptr, ptr %6, align 8, !tbaa !8
  call void %42(ptr noundef %43, ptr noundef %44)
  br label %45

45:                                               ; preds = %21, %41, %30
  ret void
}

; Function Attrs: mustprogress uwtable
define internal void @_ZL17mi_buffered_flushP10buffered_s(ptr noundef %0) #0 {
  %2 = alloca ptr, align 8
  store ptr %0, ptr %2, align 8, !tbaa !489
  %3 = load ptr, ptr %2, align 8, !tbaa !489
  %4 = getelementptr inbounds nuw %struct.buffered_s, ptr %3, i32 0, i32 2
  %5 = load ptr, ptr %4, align 8, !tbaa !378
  %6 = load ptr, ptr %2, align 8, !tbaa !489
  %7 = getelementptr inbounds nuw %struct.buffered_s, ptr %6, i32 0, i32 3
  %8 = load i64, ptr %7, align 8, !tbaa !379
  %9 = getelementptr inbounds nuw i8, ptr %5, i64 %8
  store i8 0, ptr %9, align 1, !tbaa !28
  %10 = load ptr, ptr %2, align 8, !tbaa !489
  %11 = getelementptr inbounds nuw %struct.buffered_s, ptr %10, i32 0, i32 0
  %12 = load ptr, ptr %11, align 8, !tbaa !375
  %13 = load ptr, ptr %2, align 8, !tbaa !489
  %14 = getelementptr inbounds nuw %struct.buffered_s, ptr %13, i32 0, i32 1
  %15 = load ptr, ptr %14, align 8, !tbaa !377
  %16 = load ptr, ptr %2, align 8, !tbaa !489
  %17 = getelementptr inbounds nuw %struct.buffered_s, ptr %16, i32 0, i32 2
  %18 = load ptr, ptr %17, align 8, !tbaa !378
  call void @_Z9_mi_fputsPFvPKcPvES1_S0_S0_(ptr noundef %12, ptr noundef %15, ptr noundef null, ptr noundef %18)
  %19 = load ptr, ptr %2, align 8, !tbaa !489
  %20 = getelementptr inbounds nuw %struct.buffered_s, ptr %19, i32 0, i32 3
  store i64 0, ptr %20, align 8, !tbaa !379
  ret void
}

; Function Attrs: mustprogress uwtable
define internal void @_ZL15mi_buffered_outPKcPv(ptr noundef %0, ptr noundef %1) #0 {
  %3 = alloca ptr, align 8
  %4 = alloca ptr, align 8
  %5 = alloca ptr, align 8
  %6 = alloca i32, align 4
  %7 = alloca ptr, align 8
  %8 = alloca i8, align 1
  store ptr %0, ptr %3, align 8, !tbaa !29
  store ptr %1, ptr %4, align 8, !tbaa !8
  call void @llvm.lifetime.start.p0(i64 8, ptr %5) #19
  %9 = load ptr, ptr %4, align 8, !tbaa !8
  store ptr %9, ptr %5, align 8, !tbaa !489
  %10 = load ptr, ptr %3, align 8, !tbaa !29
  %11 = icmp eq ptr %10, null
  br i1 %11, label %15, label %12

12:                                               ; preds = %2
  %13 = load ptr, ptr %5, align 8, !tbaa !489
  %14 = icmp eq ptr %13, null
  br i1 %14, label %15, label %16

15:                                               ; preds = %12, %2
  store i32 1, ptr %6, align 4
  br label %56

16:                                               ; preds = %12
  call void @llvm.lifetime.start.p0(i64 8, ptr %7) #19
  %17 = load ptr, ptr %3, align 8, !tbaa !29
  store ptr %17, ptr %7, align 8, !tbaa !29
  br label %18

18:                                               ; preds = %52, %16
  %19 = load ptr, ptr %7, align 8, !tbaa !29
  %20 = load i8, ptr %19, align 1, !tbaa !28
  %21 = sext i8 %20 to i32
  %22 = icmp ne i32 %21, 0
  br i1 %22, label %24, label %23

23:                                               ; preds = %18
  store i32 2, ptr %6, align 4
  call void @llvm.lifetime.end.p0(i64 8, ptr %7) #19
  br label %55

24:                                               ; preds = %18
  call void @llvm.lifetime.start.p0(i64 1, ptr %8) #19
  %25 = load ptr, ptr %7, align 8, !tbaa !29
  %26 = load i8, ptr %25, align 1, !tbaa !28
  store i8 %26, ptr %8, align 1, !tbaa !28
  %27 = load ptr, ptr %5, align 8, !tbaa !489
  %28 = getelementptr inbounds nuw %struct.buffered_s, ptr %27, i32 0, i32 3
  %29 = load i64, ptr %28, align 8, !tbaa !379
  %30 = load ptr, ptr %5, align 8, !tbaa !489
  %31 = getelementptr inbounds nuw %struct.buffered_s, ptr %30, i32 0, i32 4
  %32 = load i64, ptr %31, align 8, !tbaa !380
  %33 = icmp uge i64 %29, %32
  br i1 %33, label %34, label %36

34:                                               ; preds = %24
  %35 = load ptr, ptr %5, align 8, !tbaa !489
  call void @_ZL17mi_buffered_flushP10buffered_s(ptr noundef %35)
  br label %36

36:                                               ; preds = %34, %24
  %37 = load i8, ptr %8, align 1, !tbaa !28
  %38 = load ptr, ptr %5, align 8, !tbaa !489
  %39 = getelementptr inbounds nuw %struct.buffered_s, ptr %38, i32 0, i32 2
  %40 = load ptr, ptr %39, align 8, !tbaa !378
  %41 = load ptr, ptr %5, align 8, !tbaa !489
  %42 = getelementptr inbounds nuw %struct.buffered_s, ptr %41, i32 0, i32 3
  %43 = load i64, ptr %42, align 8, !tbaa !379
  %44 = add i64 %43, 1
  store i64 %44, ptr %42, align 8, !tbaa !379
  %45 = getelementptr inbounds nuw i8, ptr %40, i64 %43
  store i8 %37, ptr %45, align 1, !tbaa !28
  %46 = load i8, ptr %8, align 1, !tbaa !28
  %47 = sext i8 %46 to i32
  %48 = icmp eq i32 %47, 10
  br i1 %48, label %49, label %51

49:                                               ; preds = %36
  %50 = load ptr, ptr %5, align 8, !tbaa !489
  call void @_ZL17mi_buffered_flushP10buffered_s(ptr noundef %50)
  br label %51

51:                                               ; preds = %49, %36
  call void @llvm.lifetime.end.p0(i64 1, ptr %8) #19
  br label %52

52:                                               ; preds = %51
  %53 = load ptr, ptr %7, align 8, !tbaa !29
  %54 = getelementptr inbounds nuw i8, ptr %53, i32 1
  store ptr %54, ptr %7, align 8, !tbaa !29
  br label %18, !llvm.loop !491

55:                                               ; preds = %23
  store i32 0, ptr %6, align 4
  br label %56

56:                                               ; preds = %55, %15
  call void @llvm.lifetime.end.p0(i64 8, ptr %5) #19
  %57 = load i32, ptr %6, align 4
  switch i32 %57, label %59 [
    i32 0, label %58
    i32 1, label %58
  ]

58:                                               ; preds = %56, %56
  ret void

59:                                               ; preds = %56
  unreachable
}