; Function Attrs: mustprogress uwtable
define internal void @_ZL15mi_buffered_outPKcPv(ptr noundef readonly captures(address_is_null) %0, ptr noundef captures(address_is_null) %1) #6 {
  %3 = icmp eq ptr %0, null
  %4 = icmp eq ptr %1, null
  %or.cond = or i1 %3, %4
  br i1 %or.cond, label %.loopexit, label %.preheader

.preheader:                                       ; preds = %2
  %5 = load i8, ptr %0, align 1, !tbaa !25
  %.not23 = icmp eq i8 %5, 0
  br i1 %.not23, label %.loopexit, label %.lr.ph

.lr.ph:                                           ; preds = %.preheader
  %6 = getelementptr inbounds nuw i8, ptr %1, i64 24
  %7 = getelementptr inbounds nuw i8, ptr %1, i64 32
  %8 = getelementptr inbounds nuw i8, ptr %1, i64 16
  %9 = getelementptr inbounds nuw i8, ptr %1, i64 8
  br label %10

10:                                               ; preds = %.lr.ph, %58
  %11 = phi i8 [ %5, %.lr.ph ], [ %60, %58 ]
  %.024 = phi ptr [ %0, %.lr.ph ], [ %59, %58 ]
  %12 = load i64, ptr %6, align 8, !tbaa !361
  %13 = load i64, ptr %7, align 8, !tbaa !320
  %.not18 = icmp ult i64 %12, %13
  br i1 %.not18, label %_ZL17mi_buffered_flushP10buffered_s.exit, label %14

14:                                               ; preds = %10
  %15 = load ptr, ptr %8, align 8, !tbaa !321
  %16 = getelementptr inbounds nuw i8, ptr %15, i64 %12
  store i8 0, ptr %16, align 1, !tbaa !25
  %17 = load ptr, ptr %1, align 8, !tbaa !317
  %18 = load ptr, ptr %8, align 8, !tbaa !321
  %19 = icmp eq ptr %17, null
  %20 = load ptr, ptr @stdout, align 8
  %21 = icmp eq ptr %17, %20
  %or.cond.i.i = select i1 %19, i1 true, i1 %21
  %22 = load ptr, ptr @stderr, align 8
  %23 = icmp eq ptr %17, %22
  %or.cond17.i.i = select i1 %or.cond.i.i, i1 true, i1 %23
  br i1 %or.cond17.i.i, label %24, label %31

24:                                               ; preds = %14
  %25 = tail call fastcc noundef zeroext i1 @_ZL21mi_recurse_enter_primv()
  br i1 %25, label %26, label %_ZL17mi_buffered_flushP10buffered_s.exit

26:                                               ; preds = %24
  %27 = load atomic i64, ptr @_ZL10mi_out_arg.0 acquire, align 8
  %.0.i.i.i.i.i.i = inttoptr i64 %27 to ptr
  %28 = load volatile ptr, ptr @_ZL14mi_out_default, align 8, !tbaa !64
  %29 = icmp eq ptr %28, null
  %30 = select i1 %29, ptr @_ZL10mi_out_bufPKcPv, ptr %28
  tail call void %30(ptr noundef %18, ptr noundef %.0.i.i.i.i.i.i)
  tail call fastcc void @_ZL20mi_recurse_exit_primv()
  br label %_ZL17mi_buffered_flushP10buffered_s.exit

31:                                               ; preds = %14
  %32 = load ptr, ptr %9, align 8, !tbaa !319
  tail call void %17(ptr noundef %18, ptr noundef %32)
  br label %_ZL17mi_buffered_flushP10buffered_s.exit

_ZL17mi_buffered_flushP10buffered_s.exit:         ; preds = %31, %26, %24, %10
  %33 = phi i64 [ %12, %10 ], [ 0, %24 ], [ 0, %26 ], [ 0, %31 ]
  %34 = load ptr, ptr %8, align 8, !tbaa !321
  %35 = add nuw i64 %33, 1
  store i64 %35, ptr %6, align 8, !tbaa !361
  %36 = getelementptr inbounds nuw i8, ptr %34, i64 %33
  store i8 %11, ptr %36, align 1, !tbaa !25
  %37 = icmp eq i8 %11, 10
  br i1 %37, label %38, label %58

38:                                               ; preds = %_ZL17mi_buffered_flushP10buffered_s.exit
  %39 = load ptr, ptr %8, align 8, !tbaa !321
  %40 = load i64, ptr %6, align 8, !tbaa !361
  %41 = getelementptr inbounds nuw i8, ptr %39, i64 %40
  store i8 0, ptr %41, align 1, !tbaa !25
  %42 = load ptr, ptr %1, align 8, !tbaa !317
  %43 = load ptr, ptr %8, align 8, !tbaa !321
  %44 = icmp eq ptr %42, null
  %45 = load ptr, ptr @stdout, align 8
  %46 = icmp eq ptr %42, %45
  %or.cond.i.i19 = select i1 %44, i1 true, i1 %46
  %47 = load ptr, ptr @stderr, align 8
  %48 = icmp eq ptr %42, %47
  %or.cond17.i.i20 = select i1 %or.cond.i.i19, i1 true, i1 %48
  br i1 %or.cond17.i.i20, label %49, label %56

49:                                               ; preds = %38
  %50 = tail call fastcc noundef zeroext i1 @_ZL21mi_recurse_enter_primv()
  br i1 %50, label %51, label %_ZL17mi_buffered_flushP10buffered_s.exit22

51:                                               ; preds = %49
  %52 = load atomic i64, ptr @_ZL10mi_out_arg.0 acquire, align 8
  %.0.i.i.i.i.i.i21 = inttoptr i64 %52 to ptr
  %53 = load volatile ptr, ptr @_ZL14mi_out_default, align 8, !tbaa !64
  %54 = icmp eq ptr %53, null
  %55 = select i1 %54, ptr @_ZL10mi_out_bufPKcPv, ptr %53
  tail call void %55(ptr noundef %43, ptr noundef %.0.i.i.i.i.i.i21)
  tail call fastcc void @_ZL20mi_recurse_exit_primv()
  br label %_ZL17mi_buffered_flushP10buffered_s.exit22

56:                                               ; preds = %38
  %57 = load ptr, ptr %9, align 8, !tbaa !319
  tail call void %42(ptr noundef %43, ptr noundef %57)
  br label %_ZL17mi_buffered_flushP10buffered_s.exit22

_ZL17mi_buffered_flushP10buffered_s.exit22:       ; preds = %49, %51, %56
  store i64 0, ptr %6, align 8, !tbaa !361
  br label %58

58:                                               ; preds = %_ZL17mi_buffered_flushP10buffered_s.exit22, %_ZL17mi_buffered_flushP10buffered_s.exit
  %59 = getelementptr inbounds nuw i8, ptr %.024, i64 1
  %60 = load i8, ptr %59, align 1, !tbaa !25
  %.not = icmp eq i8 %60, 0
  br i1 %.not, label %.loopexit, label %10, !llvm.loop !362

.loopexit:                                        ; preds = %58, %.preheader, %2
  ret void
}